target datalayout = "e-m:e-p270:32:32-p271:32:32-p272:64:64-i64:64-i128:128-f80:128-n8:16:32:64-S128"
target triple = "x86_64-pc-linux-gnu"

%struct.lzmastate = type { ptr, i32, i32 }

; Function Attrs: nounwind uwtable
define internal i32 @lzma_486204(ptr noundef %0, i32 noundef %1, ptr noundef %2, ptr noundef %3, i32 noundef %4) #0 {
  %6 = alloca i32, align 4
  %7 = alloca ptr, align 8
  %8 = alloca i32, align 4
  %9 = alloca ptr, align 8
  %10 = alloca ptr, align 8
  %11 = alloca i32, align 4
  %12 = alloca i32, align 4
  %13 = alloca i32, align 4
  %14 = alloca i32, align 4
  %15 = alloca i32, align 4
  %16 = alloca ptr, align 8
  store ptr %0, ptr %7, align 8
  store i32 %1, ptr %8, align 4
  store ptr %2, ptr %9, align 8
  store ptr %3, ptr %10, align 8
  store i32 %4, ptr %11, align 4
  %17 = load ptr, ptr %7, align 8
  %18 = getelementptr inbounds %struct.lzmastate, ptr %17, i32 0, i32 1
  %19 = load i32, ptr %18, align 8
  store i32 %19, ptr %12, align 4
  %20 = load ptr, ptr %7, align 8
  %21 = getelementptr inbounds %struct.lzmastate, ptr %20, i32 0, i32 2
  %22 = load i32, ptr %21, align 4
  store i32 %22, ptr %13, align 4
  store i32 0, ptr %15, align 4
  %23 = load i32, ptr %8, align 4
  %24 = icmp ne i32 %23, 0
  br i1 %24, label %25, label %122

25:                                               ; preds = %5
  %26 = load i32, ptr %8, align 4
  %27 = and i32 %26, -2147483648
  %28 = icmp ne i32 %27, 0
  br i1 %28, label %122, label %29

29:                                               ; preds = %25
  %30 = load i32, ptr %8, align 4
  store i32 %30, ptr %14, align 4
  br label %31

31:                                               ; preds = %118, %29
  %32 = load i32, ptr %12, align 4
  %33 = lshr i32 %32, 1
  store i32 %33, ptr %12, align 4
  %34 = load i32, ptr %15, align 4
  %35 = shl i32 %34, 1
  store i32 %35, ptr %15, align 4
  %36 = load i32, ptr %13, align 4
  %37 = load i32, ptr %12, align 4
  %38 = icmp uge i32 %36, %37
  br i1 %38, label %39, label %45

39:                                               ; preds = %31
  %40 = load i32, ptr %12, align 4
  %41 = load i32, ptr %13, align 4
  %42 = sub i32 %41, %40
  store i32 %42, ptr %13, align 4
  %43 = load i32, ptr %15, align 4
  %44 = or i32 %43, 1
  store i32 %44, ptr %15, align 4
  br label %45

45:                                               ; preds = %39, %31
  %46 = load i32, ptr %12, align 4
  %47 = icmp ult i32 %46, 16777216
  br i1 %47, label %48, label %115

48:                                               ; preds = %45
  %49 = load i32, ptr %11, align 4
  %50 = zext i32 %49 to i64
  %51 = icmp ugt i64 %50, 0
  br i1 %51, label %52, label %96

52:                                               ; preds = %48
  %53 = load i32, ptr %11, align 4
  %54 = zext i32 %53 to i64
  %55 = icmp ule i64 1, %54
  br i1 %55, label %56, label %96

56:                                               ; preds = %52
  %57 = load ptr, ptr %7, align 8
  %58 = getelementptr inbounds %struct.lzmastate, ptr %57, i32 0, i32 0
  %59 = load ptr, ptr %58, align 8
  %60 = ptrtoint ptr %59 to i64
  %61 = load ptr, ptr %10, align 8
  %62 = ptrtoint ptr %61 to i64
  %63 = icmp uge i64 %60, %62
  br i1 %63, label %64, label %96

64:                                               ; preds = %56
  %65 = load ptr, ptr %7, align 8
  %66 = getelementptr inbounds %struct.lzmastate, ptr %65, i32 0, i32 0
  %67 = load ptr, ptr %66, align 8
  %68 = ptrtoint ptr %67 to i64
  %69 = add i64 %68, 1
  %70 = load ptr, ptr %10, align 8
  %71 = ptrtoint ptr %70 to i64
  %72 = load i32, ptr %11, align 4
  %73 = zext i32 %72 to i64
  %74 = add i64 %71, %73
  %75 = icmp ule i64 %69, %74
  br i1 %75, label %76, label %96

76:                                               ; preds = %64
  %77 = load ptr, ptr %7, align 8
  %78 = getelementptr inbounds %struct.lzmastate, ptr %77, i32 0, i32 0
  %79 = load ptr, ptr %78, align 8
  %80 = ptrtoint ptr %79 to i64
  %81 = add i64 %80, 1
  %82 = load ptr, ptr %10, align 8
  %83 = ptrtoint ptr %82 to i64
  %84 = icmp ugt i64 %81, %83
  br i1 %84, label %85, label %96

85:                                               ; preds = %76
  %86 = load ptr, ptr %7, align 8
  %87 = getelementptr inbounds %struct.lzmastate, ptr %86, i32 0, i32 0
  %88 = load ptr, ptr %87, align 8
  %89 = ptrtoint ptr %88 to i64
  %90 = load ptr, ptr %10, align 8
  %91 = ptrtoint ptr %90 to i64
  %92 = load i32, ptr %11, align 4
  %93 = zext i32 %92 to i64
  %94 = add i64 %91, %93
  %95 = icmp ult i64 %89, %94
  br i1 %95, label %97, label %96

96:                                               ; preds = %85, %76, %64, %56, %52, %48
  store i32 -1, ptr %6, align 4
  br label %131

97:                                               ; preds = %85
  %98 = load ptr, ptr %7, align 8
  %99 = getelementptr inbounds %struct.lzmastate, ptr %98, i32 0, i32 0
  %100 = load ptr, ptr %99, align 8
  store ptr %100, ptr %16, align 8
  %101 = load i32, ptr %13, align 4
  %102 = shl i32 %101, 8
  store i32 %102, ptr %13, align 4
  %103 = load i32, ptr %12, align 4
  %104 = shl i32 %103, 8
  store i32 %104, ptr %12, align 4
  %105 = load ptr, ptr %16, align 8
  %106 = load i8, ptr %105, align 1
  %107 = sext i8 %106 to i32
  %108 = and i32 %107, 255
  %109 = load i32, ptr %13, align 4
  %110 = or i32 %109, %108
  store i32 %110, ptr %13, align 4
  %111 = load ptr, ptr %16, align 8
  %112 = getelementptr inbounds i8, ptr %111, i32 1
  store ptr %112, ptr %16, align 8
  %113 = load ptr, ptr %7, align 8
  %114 = getelementptr inbounds %struct.lzmastate, ptr %113, i32 0, i32 0
  store ptr %112, ptr %114, align 8
  br label %115

115:                                              ; preds = %97, %45
  %116 = load i32, ptr %14, align 4
  %117 = add i32 %116, -1
  store i32 %117, ptr %14, align 4
  br label %118

118:                                              ; preds = %115
  %119 = load i32, ptr %14, align 4
  %120 = icmp ne i32 %119, 0
  br i1 %120, label %31, label %121

121:                                              ; preds = %118
  br label %122

122:                                              ; preds = %121, %25, %5
  %123 = load i32, ptr %13, align 4
  %124 = load ptr, ptr %7, align 8
  %125 = getelementptr inbounds %struct.lzmastate, ptr %124, i32 0, i32 2
  store i32 %123, ptr %125, align 4
  %126 = load i32, ptr %12, align 4
  %127 = load ptr, ptr %7, align 8
  %128 = getelementptr inbounds %struct.lzmastate, ptr %127, i32 0, i32 1
  store i32 %126, ptr %128, align 8
  %129 = load i32, ptr %15, align 4
  %130 = load ptr, ptr %9, align 8
  store i32 %129, ptr %130, align 4
  store i32 0, ptr %6, align 4
  br label %131

131:                                              ; preds = %122, %96
  %132 = load i32, ptr %6, align 4
  ret i32 %132
}