; Function Attrs: nofree norecurse nosync nounwind memory(read, argmem: readwrite, inaccessiblemem: none) uwtable
define internal fastcc noundef i32 @lzma_486204(ptr nocapture noundef %0, i32 noundef %1, ptr nocapture noundef writeonly %2, ptr noundef %3, i32 noundef %4) unnamed_addr #4 {
  %6 = getelementptr inbounds i8, ptr %0, i64 8
  %7 = load i32, ptr %6, align 8
  %8 = getelementptr inbounds i8, ptr %0, i64 12
  %9 = load i32, ptr %8, align 4
  %or.cond = icmp sgt i32 %1, 0
  br i1 %or.cond, label %.preheader, label %.loopexit68

.preheader:                                       ; preds = %5
  %10 = zext i32 %4 to i64
  %.not62 = icmp eq i32 %4, 0
  %11 = ptrtoint ptr %3 to i64
  %12 = add i64 %10, %11
  br i1 %.not62, label %.preheader.split.us, label %.preheader.split

.preheader.split.us:                              ; preds = %.preheader, %14
  %.047.us = phi i32 [ %16, %14 ], [ %7, %.preheader ]
  %.044.us = phi i32 [ %.145.us, %14 ], [ %9, %.preheader ]
  %.043.us = phi i32 [ %19, %14 ], [ %1, %.preheader ]
  %.042.us = phi i32 [ %.1.us, %14 ], [ 0, %.preheader ]
  %13 = icmp ult i32 %.047.us, 33554432
  br i1 %13, label %.loopexit, label %14

14:                                               ; preds = %.preheader.split.us
  %15 = shl i32 %.042.us, 1
  %16 = lshr i32 %.047.us, 1
  %.not61.us = icmp uge i32 %.044.us, %16
  %17 = zext i1 %.not61.us to i32
  %.1.us = or disjoint i32 %15, %17
  %18 = select i1 %.not61.us, i32 %16, i32 0
  %.145.us = sub i32 %.044.us, %18
  %19 = add i32 %.043.us, -1
  %.not65.us = icmp eq i32 %19, 0
  br i1 %.not65.us, label %.loopexit68, label %.preheader.split.us

.preheader.split:                                 ; preds = %.preheader, %39
  %.047 = phi i32 [ %.148, %39 ], [ %7, %.preheader ]
  %.044 = phi i32 [ %.246, %39 ], [ %9, %.preheader ]
  %.043 = phi i32 [ %40, %39 ], [ %1, %.preheader ]
  %.042 = phi i32 [ %.1, %39 ], [ 0, %.preheader ]
  %20 = lshr i32 %.047, 1
  %21 = shl i32 %.042, 1
  %.not61 = icmp uge i32 %.044, %20
  %22 = select i1 %.not61, i32 %20, i32 0
  %.145 = sub i32 %.044, %22
  %23 = zext i1 %.not61 to i32
  %.1 = or disjoint i32 %21, %23
  %24 = icmp ult i32 %.047, 33554432
  br i1 %24, label %25, label %39

25:                                               ; preds = %.preheader.split
  %26 = load ptr, ptr %0, align 8
  %.not63 = icmp ult ptr %26, %3
  br i1 %.not63, label %.loopexit, label %27

27:                                               ; preds = %25
  %28 = ptrtoint ptr %26 to i64
  %29 = add i64 %28, 1
  %.not64 = icmp ule i64 %29, %12
  %30 = icmp ugt i64 %29, %11
  %or.cond66 = and i1 %.not64, %30
  %31 = icmp ugt i64 %12, %28
  %or.cond67 = and i1 %31, %or.cond66
  br i1 %or.cond67, label %32, label %.loopexit

32:                                               ; preds = %27
  %33 = shl i32 %.145, 8
  %34 = shl nuw i32 %20, 8
  %35 = load i8, ptr %26, align 1
  %36 = zext i8 %35 to i32
  %37 = or disjoint i32 %33, %36
  %38 = getelementptr inbounds i8, ptr %26, i64 1
  store ptr %38, ptr %0, align 8
  br label %39

39:                                               ; preds = %32, %.preheader.split
  %.148 = phi i32 [ %34, %32 ], [ %20, %.preheader.split ]
  %.246 = phi i32 [ %37, %32 ], [ %.145, %.preheader.split ]
  %40 = add i32 %.043, -1
  %.not65 = icmp eq i32 %40, 0
  br i1 %.not65, label %.loopexit68, label %.preheader.split

.loopexit68:                                      ; preds = %39, %14, %5
  %.249 = phi i32 [ %7, %5 ], [ %16, %14 ], [ %.148, %39 ]
  %.3 = phi i32 [ %9, %5 ], [ %.145.us, %14 ], [ %.246, %39 ]
  %.2 = phi i32 [ 0, %5 ], [ %.1.us, %14 ], [ %.1, %39 ]
  store i32 %.3, ptr %8, align 4
  store i32 %.249, ptr %6, align 8
  store i32 %.2, ptr %2, align 4
  br label %.loopexit

.loopexit:                                        ; preds = %27, %25, %.preheader.split.us, %.loopexit68
  %.0 = phi i32 [ 0, %.loopexit68 ], [ -1, %.preheader.split.us ], [ -1, %25 ], [ -1, %27 ]
  ret i32 %.0
}